target datalayout = "e-m:e-p270:32:32-p271:32:32-p272:64:64-i64:64-i128:128-f80:128-n8:16:32:64-S128"
target triple = "x86_64-pc-linux-gnu"

%struct.fetch_negotiator = type { ptr, ptr, ptr, ptr, ptr, ptr }
%struct.commit = type { %struct.object, i64, ptr, ptr, i32 }
%struct.object = type { i32, %struct.object_id }
%struct.object_id = type { [32 x i8], i32 }

; Function Attrs: nounwind uwtable
define internal i32 @ack(ptr noundef %0, ptr noundef %1) #0 {
  %3 = alloca ptr, align 8
  %4 = alloca ptr, align 8
  %5 = alloca i32, align 4
  store ptr %0, ptr %3, align 8, !tbaa !4
  store ptr %1, ptr %4, align 8, !tbaa !27
  call void @llvm.lifetime.start.p0(i64 4, ptr %5) #6
  %6 = load ptr, ptr %4, align 8, !tbaa !27
  %7 = getelementptr inbounds nuw %struct.commit, ptr %6, i32 0, i32 0
  %8 = load i32, ptr %7, align 8
  %9 = lshr i32 %8, 4
  %10 = and i32 %9, 4
  %11 = icmp ne i32 %10, 0
  %12 = xor i1 %11, true
  %13 = xor i1 %12, true
  %14 = zext i1 %13 to i32
  store i32 %14, ptr %5, align 4, !tbaa !24
  %15 = load ptr, ptr %3, align 8, !tbaa !4
  %16 = getelementptr inbounds nuw %struct.fetch_negotiator, ptr %15, i32 0, i32 5
  %17 = load ptr, ptr %16, align 8, !tbaa !17
  %18 = load ptr, ptr %4, align 8, !tbaa !27
  call void @mark_common(ptr noundef %17, ptr noundef %18, i32 noundef 0, i32 noundef 1)
  %19 = load i32, ptr %5, align 4, !tbaa !24
  call void @llvm.lifetime.end.p0(i64 4, ptr %5) #6
  ret i32 %19
}