; Function Attrs: nounwind uwtable
define internal range(i32 0, 2) i32 @ack(ptr noundef readonly captures(none) %0, ptr noundef %1) #0 {
  %3 = load i32, ptr %1, align 8
  %4 = lshr i32 %3, 6
  %.lobit = and i32 %4, 1
  %5 = getelementptr inbounds nuw i8, ptr %0, i64 40
  %6 = load ptr, ptr %5, align 8, !tbaa !13
  tail call fastcc void @mark_common(ptr noundef %6, ptr noundef nonnull %1, i32 noundef 0, i32 noundef 1)
  ret i32 %.lobit
}